; ModuleID = '29/26.c'
source_filename = "29/26.c"
target datalayout = "e-m:e-p270:32:32-p271:32:32-p272:64:64-i64:64-f80:128-n8:16:32:64-S128"
target triple = "x86_64-pc-linux-gnu"

@.str = private unnamed_addr constant [3 x i8] c"%d\00", align 1
@.str.1 = private unnamed_addr constant [7 x i8] c"%.3lf\0A\00", align 1

; Function Attrs: noinline nounwind uwtable
define dso_local i32 @main() #0 {
  %1 = alloca i32, align 4
  %2 = alloca i32, align 4
  %3 = alloca i32, align 4
  %4 = alloca i32, align 4
  %5 = alloca i32, align 4
  %6 = alloca i32, align 4
  %7 = alloca i32, align 4
  %8 = alloca i32, align 4
  %9 = alloca i32, align 4
  %10 = alloca i32, align 4
  %11 = alloca double, align 8
  store i32 0, i32* %1, align 4
  store double 0.000000e+00, double* %11, align 8
  %12 = call i32 (i8*, ...) @__isoc99_scanf(i8* getelementptr inbounds ([3 x i8], [3 x i8]* @.str, i64 0, i64 0), i32* %2)
  store i32 0, i32* %4, align 4
  br label %13

13:                                               ; preds = %65, %0
  %14 = load i32, i32* %4, align 4
  %15 = load i32, i32* %2, align 4
  %16 = icmp slt i32 %14, %15
  br i1 %16, label %17, label %68

17:                                               ; preds = %13
  %18 = call i32 (i8*, ...) @__isoc99_scanf(i8* getelementptr inbounds ([3 x i8], [3 x i8]* @.str, i64 0, i64 0), i32* %3)
  %19 = load i32, i32* %3, align 4
  %20 = icmp eq i32 %19, 1
  br i1 %20, label %21, label %24

21:                                               ; preds = %17
  store double 2.000000e+00, double* %11, align 8
  %22 = load double, double* %11, align 8
  %23 = call i32 (i8*, ...) @printf(i8* getelementptr inbounds ([7 x i8], [7 x i8]* @.str.1, i64 0, i64 0), double %22)
  br label %24

24:                                               ; preds = %21, %17
  %25 = load i32, i32* %3, align 4
  %26 = icmp eq i32 %25, 2
  br i1 %26, label %27, label %30

27:                                               ; preds = %24
  store double 3.500000e+00, double* %11, align 8
  %28 = load double, double* %11, align 8
  %29 = call i32 (i8*, ...) @printf(i8* getelementptr inbounds ([7 x i8], [7 x i8]* @.str.1, i64 0, i64 0), double %28)
  br label %30

30:                                               ; preds = %27, %24
  %31 = load i32, i32* %3, align 4
  %32 = icmp sgt i32 %31, 2
  br i1 %32, label %33, label %64

33:                                               ; preds = %30
  store i32 1, i32* %6, align 4
  store i32 2, i32* %7, align 4
  store i32 3, i32* %8, align 4
  store double 0.000000e+00, double* %11, align 8
  %34 = load double, double* %11, align 8
  %35 = fadd double %34, 3.500000e+00
  store double %35, double* %11, align 8
  store i32 2, i32* %5, align 4
  br label %36

36:                                               ; preds = %58, %33
  %37 = load i32, i32* %5, align 4
  %38 = load i32, i32* %3, align 4
  %39 = icmp slt i32 %37, %38
  br i1 %39, label %40, label %61

40:                                               ; preds = %36
  %41 = load i32, i32* %7, align 4
  %42 = load i32, i32* %8, align 4
  %43 = add nsw i32 %41, %42
  store i32 %43, i32* %10, align 4
  %44 = load i32, i32* %6, align 4
  %45 = load i32, i32* %7, align 4
  %46 = add nsw i32 %44, %45
  store i32 %46, i32* %9, align 4
  %47 = load i32, i32* %7, align 4
  store i32 %47, i32* %6, align 4
  %48 = load i32, i32* %8, align 4
  store i32 %48, i32* %7, align 4
  %49 = load i32, i32* %10, align 4
  store i32 %49, i32* %8, align 4
  %50 = load i32, i32* %10, align 4
  %51 = sitofp i32 %50 to double
  %52 = fmul double 1.000000e+00, %51
  %53 = load i32, i32* %9, align 4
  %54 = sitofp i32 %53 to double
  %55 = fdiv double %52, %54
  %56 = load double, double* %11, align 8
  %57 = fadd double %56, %55
  store double %57, double* %11, align 8
  br label %58

58:                                               ; preds = %40
  %59 = load i32, i32* %5, align 4
  %60 = add nsw i32 %59, 1
  store i32 %60, i32* %5, align 4
  br label %36

61:                                               ; preds = %36
  %62 = load double, double* %11, align 8
  %63 = call i32 (i8*, ...) @printf(i8* getelementptr inbounds ([7 x i8], [7 x i8]* @.str.1, i64 0, i64 0), double %62)
  br label %64

64:                                               ; preds = %61, %30
  br label %65

65:                                               ; preds = %64
  %66 = load i32, i32* %4, align 4
  %67 = add nsw i32 %66, 1
  store i32 %67, i32* %4, align 4
  br label %13

68:                                               ; preds = %13
  ret i32 0
}

declare dso_local i32 @__isoc99_scanf(i8*, ...) #1

declare dso_local i32 @printf(i8*, ...) #1


!llvm.module.flags = !{!0}
!llvm.ident = !{!1}

!0 = !{i32 1, !"wchar_size", i32 4}
!1 = !{!"clang version 10.0.0-4ubuntu1 "}
